target datalayout = "e-m:e-p270:32:32-p271:32:32-p272:64:64-i64:64-i128:128-f80:128-n8:16:32:64-S128"
target triple = "x86_64-pc-linux-gnu"

@.str.62 = private unnamed_addr constant [5 x i8] c"\1B[0m\00", align 1
@.str.63 = private unnamed_addr constant [6 x i8] c"\1B[30m\00", align 1
@.str.64 = private unnamed_addr constant [6 x i8] c"\1B[31m\00", align 1
@.str.65 = private unnamed_addr constant [6 x i8] c"\1B[32m\00", align 1
@.str.66 = private unnamed_addr constant [6 x i8] c"\1B[33m\00", align 1
@.str.67 = private unnamed_addr constant [6 x i8] c"\1B[34m\00", align 1
@.str.68 = private unnamed_addr constant [6 x i8] c"\1B[35m\00", align 1
@.str.69 = private unnamed_addr constant [6 x i8] c"\1B[36m\00", align 1
@.str.70 = private unnamed_addr constant [6 x i8] c"\1B[37m\00", align 1
@.str.71 = private unnamed_addr constant [6 x i8] c"\1B[40m\00", align 1
@.str.72 = private unnamed_addr constant [6 x i8] c"\1B[41m\00", align 1
@.str.73 = private unnamed_addr constant [6 x i8] c"\1B[42m\00", align 1
@.str.74 = private unnamed_addr constant [6 x i8] c"\1B[43m\00", align 1
@.str.75 = private unnamed_addr constant [6 x i8] c"\1B[44m\00", align 1
@.str.76 = private unnamed_addr constant [6 x i8] c"\1B[45m\00", align 1
@.str.77 = private unnamed_addr constant [6 x i8] c"\1B[46m\00", align 1
@.str.78 = private unnamed_addr constant [6 x i8] c"\1B[47m\00", align 1
@.str.79 = private unnamed_addr constant [5 x i8] c"\1B[1m\00", align 1

; Function Attrs: nounwind uwtable
define internal void @kwsysTerminalSetVT100Color(ptr noundef %0, i32 noundef %1) #0 {
  %3 = alloca ptr, align 8
  %4 = alloca i32, align 4
  store ptr %0, ptr %3, align 8, !tbaa !8
  store i32 %1, ptr %4, align 4, !tbaa !4
  %5 = load i32, ptr %4, align 4, !tbaa !4
  %6 = icmp eq i32 %5, 0
  br i1 %6, label %7, label %10

7:                                                ; preds = %2
  %8 = load ptr, ptr %3, align 8, !tbaa !8
  %9 = call i32 (ptr, ptr, ...) @fprintf(ptr noundef %8, ptr noundef @.str.62) #5
  br label %74

10:                                               ; preds = %2
  %11 = load i32, ptr %4, align 4, !tbaa !4
  %12 = and i32 %11, 15
  switch i32 %12, label %40 [
    i32 0, label %13
    i32 1, label %16
    i32 2, label %19
    i32 3, label %22
    i32 4, label %25
    i32 5, label %28
    i32 6, label %31
    i32 7, label %34
    i32 8, label %37
  ]

13:                                               ; preds = %10
  %14 = load ptr, ptr %3, align 8, !tbaa !8
  %15 = call i32 (ptr, ptr, ...) @fprintf(ptr noundef %14, ptr noundef @.str.62) #5
  br label %40

16:                                               ; preds = %10
  %17 = load ptr, ptr %3, align 8, !tbaa !8
  %18 = call i32 (ptr, ptr, ...) @fprintf(ptr noundef %17, ptr noundef @.str.63) #5
  br label %40

19:                                               ; preds = %10
  %20 = load ptr, ptr %3, align 8, !tbaa !8
  %21 = call i32 (ptr, ptr, ...) @fprintf(ptr noundef %20, ptr noundef @.str.64) #5
  br label %40

22:                                               ; preds = %10
  %23 = load ptr, ptr %3, align 8, !tbaa !8
  %24 = call i32 (ptr, ptr, ...) @fprintf(ptr noundef %23, ptr noundef @.str.65) #5
  br label %40

25:                                               ; preds = %10
  %26 = load ptr, ptr %3, align 8, !tbaa !8
  %27 = call i32 (ptr, ptr, ...) @fprintf(ptr noundef %26, ptr noundef @.str.66) #5
  br label %40

28:                                               ; preds = %10
  %29 = load ptr, ptr %3, align 8, !tbaa !8
  %30 = call i32 (ptr, ptr, ...) @fprintf(ptr noundef %29, ptr noundef @.str.67) #5
  br label %40

31:                                               ; preds = %10
  %32 = load ptr, ptr %3, align 8, !tbaa !8
  %33 = call i32 (ptr, ptr, ...) @fprintf(ptr noundef %32, ptr noundef @.str.68) #5
  br label %40

34:                                               ; preds = %10
  %35 = load ptr, ptr %3, align 8, !tbaa !8
  %36 = call i32 (ptr, ptr, ...) @fprintf(ptr noundef %35, ptr noundef @.str.69) #5
  br label %40

37:                                               ; preds = %10
  %38 = load ptr, ptr %3, align 8, !tbaa !8
  %39 = call i32 (ptr, ptr, ...) @fprintf(ptr noundef %38, ptr noundef @.str.70) #5
  br label %40

40:                                               ; preds = %10, %37, %34, %31, %28, %25, %22, %19, %16, %13
  %41 = load i32, ptr %4, align 4, !tbaa !4
  %42 = and i32 %41, 240
  switch i32 %42, label %67 [
    i32 16, label %43
    i32 32, label %46
    i32 48, label %49
    i32 64, label %52
    i32 80, label %55
    i32 96, label %58
    i32 112, label %61
    i32 128, label %64
  ]

43:                                               ; preds = %40
  %44 = load ptr, ptr %3, align 8, !tbaa !8
  %45 = call i32 (ptr, ptr, ...) @fprintf(ptr noundef %44, ptr noundef @.str.71) #5
  br label %67

46:                                               ; preds = %40
  %47 = load ptr, ptr %3, align 8, !tbaa !8
  %48 = call i32 (ptr, ptr, ...) @fprintf(ptr noundef %47, ptr noundef @.str.72) #5
  br label %67

49:                                               ; preds = %40
  %50 = load ptr, ptr %3, align 8, !tbaa !8
  %51 = call i32 (ptr, ptr, ...) @fprintf(ptr noundef %50, ptr noundef @.str.73) #5
  br label %67

52:                                               ; preds = %40
  %53 = load ptr, ptr %3, align 8, !tbaa !8
  %54 = call i32 (ptr, ptr, ...) @fprintf(ptr noundef %53, ptr noundef @.str.74) #5
  br label %67

55:                                               ; preds = %40
  %56 = load ptr, ptr %3, align 8, !tbaa !8
  %57 = call i32 (ptr, ptr, ...) @fprintf(ptr noundef %56, ptr noundef @.str.75) #5
  br label %67

58:                                               ; preds = %40
  %59 = load ptr, ptr %3, align 8, !tbaa !8
  %60 = call i32 (ptr, ptr, ...) @fprintf(ptr noundef %59, ptr noundef @.str.76) #5
  br label %67

61:                                               ; preds = %40
  %62 = load ptr, ptr %3, align 8, !tbaa !8
  %63 = call i32 (ptr, ptr, ...) @fprintf(ptr noundef %62, ptr noundef @.str.77) #5
  br label %67

64:                                               ; preds = %40
  %65 = load ptr, ptr %3, align 8, !tbaa !8
  %66 = call i32 (ptr, ptr, ...) @fprintf(ptr noundef %65, ptr noundef @.str.78) #5
  br label %67

67:                                               ; preds = %40, %64, %61, %58, %55, %52, %49, %46, %43
  %68 = load i32, ptr %4, align 4, !tbaa !4
  %69 = and i32 %68, 256
  %70 = icmp ne i32 %69, 0
  br i1 %70, label %71, label %74

71:                                               ; preds = %67
  %72 = load ptr, ptr %3, align 8, !tbaa !8
  %73 = call i32 (ptr, ptr, ...) @fprintf(ptr noundef %72, ptr noundef @.str.79) #5
  br label %74

74:                                               ; preds = %7, %71, %67
  ret void
}