; Function Attrs: nofree nounwind uwtable
define internal fastcc void @kwsysTerminalSetVT100Color(ptr noundef captures(none) %0, i32 noundef %1) unnamed_addr #2 {
  %3 = icmp eq i32 %1, 0
  br i1 %3, label %.sink.split22, label %4

4:                                                ; preds = %2
  %5 = and i32 %1, 15
  switch i32 %5, label %24 [
    i32 0, label %6
    i32 1, label %8
    i32 2, label %10
    i32 3, label %12
    i32 4, label %14
    i32 5, label %16
    i32 6, label %18
    i32 7, label %20
    i32 8, label %22
  ]

6:                                                ; preds = %4
  %7 = tail call i64 @fwrite(ptr nonnull @.str.62, i64 4, i64 1, ptr %0)
  br label %24

8:                                                ; preds = %4
  %9 = tail call i64 @fwrite(ptr nonnull @.str.63, i64 5, i64 1, ptr %0)
  br label %24

10:                                               ; preds = %4
  %11 = tail call i64 @fwrite(ptr nonnull @.str.64, i64 5, i64 1, ptr %0)
  br label %24

12:                                               ; preds = %4
  %13 = tail call i64 @fwrite(ptr nonnull @.str.65, i64 5, i64 1, ptr %0)
  br label %24

14:                                               ; preds = %4
  %15 = tail call i64 @fwrite(ptr nonnull @.str.66, i64 5, i64 1, ptr %0)
  br label %24

16:                                               ; preds = %4
  %17 = tail call i64 @fwrite(ptr nonnull @.str.67, i64 5, i64 1, ptr %0)
  br label %24

18:                                               ; preds = %4
  %19 = tail call i64 @fwrite(ptr nonnull @.str.68, i64 5, i64 1, ptr %0)
  br label %24

20:                                               ; preds = %4
  %21 = tail call i64 @fwrite(ptr nonnull @.str.69, i64 5, i64 1, ptr %0)
  br label %24

22:                                               ; preds = %4
  %23 = tail call i64 @fwrite(ptr nonnull @.str.70, i64 5, i64 1, ptr %0)
  br label %24

24:                                               ; preds = %22, %20, %18, %16, %14, %12, %10, %8, %6, %4
  %25 = and i32 %1, 240
  %26 = add nsw i32 %25, -16
  %27 = icmp ult i32 %26, 128
  br i1 %27, label %switch.lookup, label %31

switch.lookup:                                    ; preds = %24
  %28 = lshr exact i32 %26, 4
  %29 = zext nneg i32 %28 to i64
  %switch.gep = getelementptr inbounds nuw [8 x ptr], ptr @switch.table.kwsysTerminalSetVT100Color, i64 0, i64 %29
  %switch.load = load ptr, ptr %switch.gep, align 8
  %30 = tail call i64 @fwrite(ptr nonnull %switch.load, i64 5, i64 1, ptr %0)
  br label %31

31:                                               ; preds = %24, %switch.lookup
  %32 = and i32 %1, 256
  %.not = icmp eq i32 %32, 0
  br i1 %.not, label %34, label %.sink.split22

.sink.split22:                                    ; preds = %31, %2
  %.str.79.sink = phi ptr [ @.str.62, %2 ], [ @.str.79, %31 ]
  %33 = tail call i64 @fwrite(ptr nonnull %.str.79.sink, i64 4, i64 1, ptr %0)
  br label %34

34:                                               ; preds = %.sink.split22, %31
  ret void
}